; Function Attrs: mustprogress nounwind uwtable
define noundef zeroext i1 @_ZN4base13StringToSizeTERKNS_16BasicStringPieceINSt7__cxx1112basic_stringItNS_20string16_char_traitsESaItEEEEEPm(ptr noundef nonnull readonly align 8 captures(none) dereferenceable(16) %0, ptr noundef writeonly captures(none) %1) local_unnamed_addr #4 {
  %.val = load ptr, ptr %0, align 8, !tbaa !70
  %3 = getelementptr inbounds nuw i8, ptr %0, i64 8
  %.val2 = load i64, ptr %3, align 8, !tbaa !72
  %4 = getelementptr inbounds nuw i16, ptr %.val, i64 %.val2
  %.not24.i.i = icmp eq i64 %.val2, 0
  br i1 %.not24.i.i, label %.critedge18.i.i, label %.lr.ph.i.preheader.i

.lr.ph.i.preheader.i:                             ; preds = %2
  %5 = load i16, ptr %.val, align 2, !tbaa !23
  %6 = zext i16 %5 to i32
  %7 = tail call i32 @iswspace(i32 noundef %6) #18
  %.not20.i3.i = icmp eq i32 %7, 0
  br i1 %.not20.i3.i, label %.critedge.i.i, label %.lr.ph.i

.lr.ph.i.i:                                       ; preds = %.lr.ph.i
  %8 = load i16, ptr %11, align 2, !tbaa !23
  %9 = zext i16 %8 to i32
  %10 = tail call i32 @iswspace(i32 noundef %9) #18
  %.not20.i.i = icmp eq i32 %10, 0
  br i1 %.not20.i.i, label %.critedge.i.i, label %.lr.ph.i, !llvm.loop !88

.lr.ph.i:                                         ; preds = %.lr.ph.i.preheader.i, %.lr.ph.i.i
  %.01525.i4.i = phi ptr [ %11, %.lr.ph.i.i ], [ %.val, %.lr.ph.i.preheader.i ]
  %11 = getelementptr inbounds nuw i8, ptr %.01525.i4.i, i64 2
  %.not.i.i = icmp eq ptr %11, %4
  br i1 %.not.i.i, label %_ZN4base12_GLOBAL__N_121IteratorRangeToNumberINS0_27StringPiece16ToNumberTraitsImLi10EEEE4BaseINS4_8PositiveEE6InvokeEPKtS9_Pm.exit.i.sink.split.i, label %.lr.ph.i.i, !llvm.loop !88

.critedge.i.i:                                    ; preds = %.lr.ph.i.i, %.lr.ph.i.preheader.i
  %.01525.i.lcssa.i = phi ptr [ %.val, %.lr.ph.i.preheader.i ], [ %11, %.lr.ph.i.i ]
  %12 = load i16, ptr %.01525.i.lcssa.i, align 2, !tbaa !23
  %13 = icmp eq i16 %12, 45
  br i1 %13, label %14, label %.critedge17.i.i

14:                                               ; preds = %.critedge.i.i
  store i64 0, ptr %1, align 8, !tbaa !18
  br label %_ZN4base12_GLOBAL__N_117String16ToIntImplImEEbRKNS_16BasicStringPieceINSt7__cxx1112basic_stringItNS_20string16_char_traitsESaItEEEEEPT_.exit

.critedge17.i.i:                                  ; preds = %.critedge.i.i
  %15 = icmp eq i16 %12, 43
  %spec.select.idx.i.i = select i1 %15, i64 2, i64 0
  %spec.select.i.i = getelementptr inbounds nuw i8, ptr %.01525.i.lcssa.i, i64 %spec.select.idx.i.i
  br label %.critedge18.i.i

.critedge18.i.i:                                  ; preds = %.critedge17.i.i, %2
  %.022.i.i = phi i1 [ %.not20.i3.i, %.critedge17.i.i ], [ true, %2 ]
  %.116.i.i = phi ptr [ %spec.select.i.i, %.critedge17.i.i ], [ %.val, %2 ]
  store i64 0, ptr %1, align 8, !tbaa !18
  %16 = icmp eq ptr %.116.i.i, %4
  br i1 %16, label %_ZN4base12_GLOBAL__N_121IteratorRangeToNumberINS0_27StringPiece16ToNumberTraitsImLi10EEEE4BaseINS4_8PositiveEE6InvokeEPKtS9_Pm.exit.i.i, label %.preheader.i.i.i

.preheader.i.i.i:                                 ; preds = %.critedge18.i.i, %.critedge.i.i.i
  %17 = phi i64 [ %32, %.critedge.i.i.i ], [ 0, %.critedge18.i.i ]
  %.01527.i.i.i = phi ptr [ %33, %.critedge.i.i.i ], [ %.116.i.i, %.critedge18.i.i ]
  %18 = load i16, ptr %.01527.i.i.i, align 2, !tbaa !23
  %19 = add i16 %18, -48
  %or.cond.i.i.i.i.i = icmp ult i16 %19, 10
  br i1 %or.cond.i.i.i.i.i, label %20, label %_ZN4base12_GLOBAL__N_121IteratorRangeToNumberINS0_27StringPiece16ToNumberTraitsImLi10EEEE4BaseINS4_8PositiveEE6InvokeEPKtS9_Pm.exit.i.i

20:                                               ; preds = %.preheader.i.i.i
  %21 = trunc nuw i16 %18 to i8
  %22 = add nsw i8 %21, -48
  %.not20.i.i.i = icmp eq ptr %.01527.i.i.i, %.116.i.i
  br i1 %.not20.i.i.i, label %.critedge.i.i.i, label %23

23:                                               ; preds = %20
  %24 = icmp ugt i64 %17, 1844674407370955161
  br i1 %24, label %_ZN4base12_GLOBAL__N_121IteratorRangeToNumberINS0_27StringPiece16ToNumberTraitsImLi10EEEE4BaseINS4_8PositiveEE6InvokeEPKtS9_Pm.exit.i.sink.split.i, label %25

25:                                               ; preds = %23
  %26 = icmp eq i64 %17, 1844674407370955161
  %27 = icmp samesign ugt i8 %22, 5
  %or.cond.i.i.i.i = and i1 %26, %27
  br i1 %or.cond.i.i.i.i, label %_ZN4base12_GLOBAL__N_121IteratorRangeToNumberINS0_27StringPiece16ToNumberTraitsImLi10EEEE4BaseINS4_8PositiveEE6InvokeEPKtS9_Pm.exit.i.sink.split.i, label %28

28:                                               ; preds = %25
  %29 = mul nuw i64 %17, 10
  br label %.critedge.i.i.i

.critedge.i.i.i:                                  ; preds = %28, %20
  %30 = phi i64 [ %29, %28 ], [ %17, %20 ]
  %31 = zext nneg i8 %22 to i64
  %32 = add i64 %30, %31
  store i64 %32, ptr %1, align 8, !tbaa !18
  %33 = getelementptr inbounds nuw i8, ptr %.01527.i.i.i, i64 2
  %.not.i.i.i = icmp eq ptr %33, %4
  br i1 %.not.i.i.i, label %_ZN4base12_GLOBAL__N_121IteratorRangeToNumberINS0_27StringPiece16ToNumberTraitsImLi10EEEE4BaseINS4_8PositiveEE6InvokeEPKtS9_Pm.exit.i.i, label %.preheader.i.i.i, !llvm.loop !89

_ZN4base12_GLOBAL__N_121IteratorRangeToNumberINS0_27StringPiece16ToNumberTraitsImLi10EEEE4BaseINS4_8PositiveEE6InvokeEPKtS9_Pm.exit.i.sink.split.i: ; preds = %.lr.ph.i, %25, %23
  %.sink.i = phi i64 [ -1, %23 ], [ -1, %25 ], [ 0, %.lr.ph.i ]
  %.022.i9.ph.i = phi i1 [ %.022.i.i, %23 ], [ %.022.i.i, %25 ], [ false, %.lr.ph.i ]
  store i64 %.sink.i, ptr %1, align 8, !tbaa !18
  br label %_ZN4base12_GLOBAL__N_121IteratorRangeToNumberINS0_27StringPiece16ToNumberTraitsImLi10EEEE4BaseINS4_8PositiveEE6InvokeEPKtS9_Pm.exit.i.i

_ZN4base12_GLOBAL__N_121IteratorRangeToNumberINS0_27StringPiece16ToNumberTraitsImLi10EEEE4BaseINS4_8PositiveEE6InvokeEPKtS9_Pm.exit.i.i: ; preds = %.critedge.i.i.i, %.preheader.i.i.i, %_ZN4base12_GLOBAL__N_121IteratorRangeToNumberINS0_27StringPiece16ToNumberTraitsImLi10EEEE4BaseINS4_8PositiveEE6InvokeEPKtS9_Pm.exit.i.sink.split.i, %.critedge18.i.i
  %.022.i9.i = phi i1 [ %.022.i.i, %.critedge18.i.i ], [ %.022.i9.ph.i, %_ZN4base12_GLOBAL__N_121IteratorRangeToNumberINS0_27StringPiece16ToNumberTraitsImLi10EEEE4BaseINS4_8PositiveEE6InvokeEPKtS9_Pm.exit.i.sink.split.i ], [ %.022.i.i, %.preheader.i.i.i ], [ %.022.i.i, %.critedge.i.i.i ]
  %.016.i.i.i = phi i1 [ false, %.critedge18.i.i ], [ false, %_ZN4base12_GLOBAL__N_121IteratorRangeToNumberINS0_27StringPiece16ToNumberTraitsImLi10EEEE4BaseINS4_8PositiveEE6InvokeEPKtS9_Pm.exit.i.sink.split.i ], [ %or.cond.i.i.i.i.i, %.preheader.i.i.i ], [ %or.cond.i.i.i.i.i, %.critedge.i.i.i ]
  %spec.select19.i.i = and i1 %.022.i9.i, %.016.i.i.i
  br label %_ZN4base12_GLOBAL__N_117String16ToIntImplImEEbRKNS_16BasicStringPieceINSt7__cxx1112basic_stringItNS_20string16_char_traitsESaItEEEEEPT_.exit

_ZN4base12_GLOBAL__N_117String16ToIntImplImEEbRKNS_16BasicStringPieceINSt7__cxx1112basic_stringItNS_20string16_char_traitsESaItEEEEEPT_.exit: ; preds = %14, %_ZN4base12_GLOBAL__N_121IteratorRangeToNumberINS0_27StringPiece16ToNumberTraitsImLi10EEEE4BaseINS4_8PositiveEE6InvokeEPKtS9_Pm.exit.i.i
  %.1.i.i = phi i1 [ false, %14 ], [ %spec.select19.i.i, %_ZN4base12_GLOBAL__N_121IteratorRangeToNumberINS0_27StringPiece16ToNumberTraitsImLi10EEEE4BaseINS4_8PositiveEE6InvokeEPKtS9_Pm.exit.i.i ]
  ret i1 %.1.i.i
}